target datalayout = "e-m:e-p270:32:32-p271:32:32-p272:64:64-i64:64-i128:128-f80:128-n8:16:32:64-S128"
target triple = "x86_64-pc-linux-gnu"

%struct.LZ4F_frameInfo_t = type { i32, i32, i32, i32, i64, i32, i32 }
%struct.lz4_writer = type { i32, i64, i64, i64, i64, i64, ptr, i32, ptr, %struct.LZ4F_preferences_t, ptr }
%struct.LZ4F_preferences_t = type { %struct.LZ4F_frameInfo_t, i32, i32, i32, [3 x i32] }

; Function Attrs: null_pointer_is_valid sspstrong uwtable
define internal zeroext i1 @lz4_write_out(ptr noundef %0, i64 noundef %1) #0 {
  %3 = alloca i1, align 1
  %4 = alloca ptr, align 8
  %5 = alloca i64, align 8
  %6 = alloca i64, align 8
  %7 = alloca i32, align 4
  store ptr %0, ptr %4, align 8
  store i64 %1, ptr %5, align 8
  %8 = load i64, ptr %5, align 8
  %9 = icmp ugt i64 %8, 0
  br i1 %9, label %10, label %46

10:                                               ; preds = %2
  call void @llvm.lifetime.start.p0(i64 8, ptr %6) #14
  %11 = load ptr, ptr %4, align 8
  %12 = getelementptr inbounds nuw %struct.lz4_writer, ptr %11, i32 0, i32 0
  %13 = load i32, ptr %12, align 8
  %14 = load ptr, ptr %4, align 8
  %15 = getelementptr inbounds nuw %struct.lz4_writer, ptr %14, i32 0, i32 6
  %16 = load ptr, ptr %15, align 8
  %17 = load i64, ptr %5, align 8
  %18 = trunc i64 %17 to i32
  %19 = zext i32 %18 to i64
  %20 = call i64 @write(i32 noundef %13, ptr noundef %16, i64 noundef %19)
  store i64 %20, ptr %6, align 8
  %21 = load i64, ptr %6, align 8
  %22 = icmp slt i64 %21, 0
  br i1 %22, label %23, label %28

23:                                               ; preds = %10
  %24 = call ptr @__errno_location() #17
  %25 = load i32, ptr %24, align 4
  %26 = load ptr, ptr %4, align 8
  %27 = getelementptr inbounds nuw %struct.lz4_writer, ptr %26, i32 0, i32 7
  store i32 %25, ptr %27, align 8
  store i1 false, ptr %3, align 1
  store i32 1, ptr %7, align 4
  br label %43

28:                                               ; preds = %10
  %29 = load i64, ptr %6, align 8
  %30 = trunc i64 %29 to i32
  %31 = zext i32 %30 to i64
  %32 = load i64, ptr %5, align 8
  %33 = icmp ne i64 %31, %32
  br i1 %33, label %34, label %37

34:                                               ; preds = %28
  %35 = load ptr, ptr %4, align 8
  %36 = getelementptr inbounds nuw %struct.lz4_writer, ptr %35, i32 0, i32 7
  store i32 -14, ptr %36, align 8
  store i1 false, ptr %3, align 1
  store i32 1, ptr %7, align 4
  br label %43

37:                                               ; preds = %28
  %38 = load i64, ptr %6, align 8
  %39 = load ptr, ptr %4, align 8
  %40 = getelementptr inbounds nuw %struct.lz4_writer, ptr %39, i32 0, i32 2
  %41 = load i64, ptr %40, align 8
  %42 = add i64 %41, %38
  store i64 %42, ptr %40, align 8
  store i32 0, ptr %7, align 4
  br label %43

43:                                               ; preds = %37, %34, %23
  call void @llvm.lifetime.end.p0(i64 8, ptr %6) #14
  %44 = load i32, ptr %7, align 4
  switch i32 %44, label %49 [
    i32 0, label %45
    i32 1, label %47
  ]

45:                                               ; preds = %43
  br label %46

46:                                               ; preds = %45, %2
  store i1 true, ptr %3, align 1
  br label %47

47:                                               ; preds = %46, %43
  %48 = load i1, ptr %3, align 1
  ret i1 %48

49:                                               ; preds = %43
  unreachable
}

; Function Attrs: null_pointer_is_valid sspstrong uwtable
define hidden i32 @lz4wfile_flush(ptr noundef %0) #0 {
  %2 = alloca i32, align 4
  %3 = alloca ptr, align 8
  %4 = alloca i64, align 8
  %5 = alloca i32, align 4
  store ptr %0, ptr %3, align 8
  call void @llvm.lifetime.start.p0(i64 8, ptr %4) #14
  %6 = load ptr, ptr %3, align 8
  %7 = getelementptr inbounds nuw %struct.lz4_writer, ptr %6, i32 0, i32 7
  %8 = load i32, ptr %7, align 8
  %9 = icmp ne i32 %8, 0
  br i1 %9, label %10, label %11

10:                                               ; preds = %1
  store i32 -1, ptr %2, align 4
  store i32 1, ptr %5, align 4
  br label %34

11:                                               ; preds = %1
  %12 = load ptr, ptr %3, align 8
  %13 = getelementptr inbounds nuw %struct.lz4_writer, ptr %12, i32 0, i32 10
  %14 = load ptr, ptr %13, align 8
  %15 = load ptr, ptr %3, align 8
  %16 = getelementptr inbounds nuw %struct.lz4_writer, ptr %15, i32 0, i32 6
  %17 = load ptr, ptr %16, align 8
  %18 = load ptr, ptr %3, align 8
  %19 = getelementptr inbounds nuw %struct.lz4_writer, ptr %18, i32 0, i32 3
  %20 = load i64, ptr %19, align 8
  %21 = call i64 @LZ4F_flush(ptr noundef %14, ptr noundef %17, i64 noundef %20, ptr noundef null)
  store i64 %21, ptr %4, align 8
  %22 = load i64, ptr %4, align 8
  %23 = call i32 @LZ4F_isError(i64 noundef %22)
  %24 = icmp ne i32 %23, 0
  br i1 %24, label %25, label %28

25:                                               ; preds = %11
  %26 = load ptr, ptr %3, align 8
  %27 = getelementptr inbounds nuw %struct.lz4_writer, ptr %26, i32 0, i32 7
  store i32 -21, ptr %27, align 8
  store i32 -1, ptr %2, align 4
  store i32 1, ptr %5, align 4
  br label %34

28:                                               ; preds = %11
  %29 = load ptr, ptr %3, align 8
  %30 = load i64, ptr %4, align 8
  %31 = call zeroext i1 @lz4_write_out(ptr noundef %29, i64 noundef %30)
  br i1 %31, label %33, label %32

32:                                               ; preds = %28
  store i32 -1, ptr %2, align 4
  store i32 1, ptr %5, align 4
  br label %34

33:                                               ; preds = %28
  store i32 0, ptr %2, align 4
  store i32 1, ptr %5, align 4
  br label %34

34:                                               ; preds = %33, %32, %25, %10
  call void @llvm.lifetime.end.p0(i64 8, ptr %4) #14
  %35 = load i32, ptr %2, align 4
  ret i32 %35
}