; Function Attrs: null_pointer_is_valid sspstrong uwtable
define hidden range(i32 -1, 1) i32 @lz4wfile_flush(ptr noundef captures(none) %0) local_unnamed_addr #0 {
  %2 = getelementptr inbounds nuw i8, ptr %0, i64 56
  %3 = load i32, ptr %2, align 8
  %.not = icmp eq i32 %3, 0
  br i1 %.not, label %4, label %lz4_write_out.exit

4:                                                ; preds = %1
  %5 = getelementptr inbounds nuw i8, ptr %0, i64 128
  %6 = load ptr, ptr %5, align 8
  %7 = getelementptr inbounds nuw i8, ptr %0, i64 48
  %8 = load ptr, ptr %7, align 8
  %9 = getelementptr inbounds nuw i8, ptr %0, i64 24
  %10 = load i64, ptr %9, align 8
  %11 = tail call i64 @LZ4F_flush(ptr noundef %6, ptr noundef %8, i64 noundef %10, ptr noundef null)
  %12 = tail call i32 @LZ4F_isError(i64 noundef %11)
  %.not8 = icmp eq i32 %12, 0
  br i1 %.not8, label %14, label %13

13:                                               ; preds = %4
  store i32 -21, ptr %2, align 8
  br label %lz4_write_out.exit

14:                                               ; preds = %4
  %.not.i = icmp eq i64 %11, 0
  br i1 %.not.i, label %lz4_write_out.exit, label %15

15:                                               ; preds = %14
  %16 = load i32, ptr %0, align 8
  %17 = load ptr, ptr %7, align 8
  %18 = and i64 %11, 4294967295
  %19 = tail call i64 @write(i32 noundef %16, ptr noundef %17, i64 noundef %18)
  %20 = icmp slt i64 %19, 0
  br i1 %20, label %21, label %24

21:                                               ; preds = %15
  %22 = tail call ptr @__errno_location() #23
  %23 = load i32, ptr %22, align 4
  store i32 %23, ptr %2, align 8
  br label %lz4_write_out.exit

24:                                               ; preds = %15
  %25 = and i64 %19, 4294967295
  %.not15.i = icmp eq i64 %25, %11
  br i1 %.not15.i, label %27, label %26

26:                                               ; preds = %24
  store i32 -14, ptr %2, align 8
  br label %lz4_write_out.exit

27:                                               ; preds = %24
  %28 = getelementptr inbounds nuw i8, ptr %0, i64 16
  %29 = load i64, ptr %28, align 8
  %30 = add i64 %29, %19
  store i64 %30, ptr %28, align 8
  br label %lz4_write_out.exit

lz4_write_out.exit:                               ; preds = %21, %26, %27, %14, %1, %13
  %.0 = phi i32 [ -1, %13 ], [ -1, %1 ], [ -1, %21 ], [ -1, %26 ], [ 0, %27 ], [ 0, %14 ]
  ret i32 %.0
}